; Function Attrs: mustprogress nounwind uwtable
define hidden noundef i32 @_ZN7Matcher22vector_length_in_bytesEPK8MachNodePK8MachOper(ptr noundef nonnull %0, ptr noundef %1) local_unnamed_addr #0 align 2 {
  %3 = tail call noundef i32 @_ZNK8MachNode13operand_indexEPK8MachOper(ptr noundef nonnull align 8 dereferenceable(64) %0, ptr noundef %1) #15
  %4 = getelementptr inbounds i8, ptr %0, i64 8
  %5 = load ptr, ptr %4, align 8
  %6 = zext i32 %3 to i64
  %7 = getelementptr inbounds ptr, ptr %5, i64 %6
  %8 = load ptr, ptr %7, align 8
  %9 = load ptr, ptr %8, align 8
  %10 = getelementptr inbounds i8, ptr %9, i64 40
  %11 = load ptr, ptr %10, align 8
  %12 = tail call noundef ptr %11(ptr noundef nonnull align 8 dereferenceable(52) %8) #15
  %13 = getelementptr inbounds i8, ptr %12, i64 32
  %14 = load i32, ptr %13, align 8
  %15 = getelementptr inbounds i8, ptr %12, i64 24
  %16 = load ptr, ptr %15, align 8
  %17 = tail call noundef zeroext i8 @_ZNK4Type24array_element_basic_typeEv(ptr noundef nonnull align 8 dereferenceable(20) %16) #15
  %18 = zext i8 %17 to i64
  %19 = getelementptr inbounds [20 x i32], ptr @_type2aelembytes, i64 0, i64 %18
  %20 = load i32, ptr %19, align 4
  %21 = mul i32 %20, %14
  ret i32 %21
}